; ModuleID = '47/5322.c'
source_filename = "47/5322.c"
target datalayout = "e-m:e-p270:32:32-p271:32:32-p272:64:64-i64:64-f80:128-n8:16:32:64-S128"
target triple = "x86_64-pc-linux-gnu"

@.str = private unnamed_addr constant [3 x i8] c"%d\00", align 1
@.str.1 = private unnamed_addr constant [4 x i8] c"%d \00", align 1

; Function Attrs: noinline nounwind uwtable
define dso_local void @main() #0 {
  %1 = alloca [100 x i32], align 16
  %2 = alloca [100 x i32], align 16
  %3 = alloca i32, align 4
  %4 = alloca i32, align 4
  %5 = alloca i32*, align 8
  %6 = alloca i32*, align 8
  %7 = call i32 (i8*, ...) @__isoc99_scanf(i8* getelementptr inbounds ([3 x i8], [3 x i8]* @.str, i64 0, i64 0), i32* %3)
  %8 = getelementptr inbounds [100 x i32], [100 x i32]* %1, i64 0, i64 0
  store i32* %8, i32** %5, align 8
  br label %9

9:                                                ; preds = %19, %0
  %10 = load i32*, i32** %5, align 8
  %11 = getelementptr inbounds [100 x i32], [100 x i32]* %1, i64 0, i64 0
  %12 = load i32, i32* %3, align 4
  %13 = sext i32 %12 to i64
  %14 = getelementptr inbounds i32, i32* %11, i64 %13
  %15 = icmp ult i32* %10, %14
  br i1 %15, label %16, label %22

16:                                               ; preds = %9
  %17 = load i32*, i32** %5, align 8
  %18 = call i32 (i8*, ...) @__isoc99_scanf(i8* getelementptr inbounds ([3 x i8], [3 x i8]* @.str, i64 0, i64 0), i32* %17)
  br label %19

19:                                               ; preds = %16
  %20 = load i32*, i32** %5, align 8
  %21 = getelementptr inbounds i32, i32* %20, i32 1
  store i32* %21, i32** %5, align 8
  br label %9

22:                                               ; preds = %9
  %23 = getelementptr inbounds [100 x i32], [100 x i32]* %2, i64 0, i64 0
  store i32* %23, i32** %6, align 8
  %24 = load i32*, i32** %5, align 8
  %25 = getelementptr inbounds i32, i32* %24, i32 -1
  store i32* %25, i32** %5, align 8
  store i32 0, i32* %4, align 4
  br label %26

26:                                               ; preds = %36, %22
  %27 = load i32, i32* %4, align 4
  %28 = load i32, i32* %3, align 4
  %29 = icmp slt i32 %27, %28
  br i1 %29, label %30, label %39

30:                                               ; preds = %26
  %31 = load i32*, i32** %5, align 8
  %32 = getelementptr inbounds i32, i32* %31, i32 -1
  store i32* %32, i32** %5, align 8
  %33 = load i32, i32* %31, align 4
  %34 = load i32*, i32** %6, align 8
  %35 = getelementptr inbounds i32, i32* %34, i32 1
  store i32* %35, i32** %6, align 8
  store i32 %33, i32* %34, align 4
  br label %36

36:                                               ; preds = %30
  %37 = load i32, i32* %4, align 4
  %38 = add nsw i32 %37, 1
  store i32 %38, i32* %4, align 4
  br label %26

39:                                               ; preds = %26
  %40 = getelementptr inbounds [100 x i32], [100 x i32]* %2, i64 0, i64 0
  store i32* %40, i32** %6, align 8
  store i32 0, i32* %4, align 4
  br label %41

41:                                               ; preds = %51, %39
  %42 = load i32, i32* %4, align 4
  %43 = load i32, i32* %3, align 4
  %44 = sub nsw i32 %43, 1
  %45 = icmp slt i32 %42, %44
  br i1 %45, label %46, label %54

46:                                               ; preds = %41
  %47 = load i32*, i32** %6, align 8
  %48 = getelementptr inbounds i32, i32* %47, i32 1
  store i32* %48, i32** %6, align 8
  %49 = load i32, i32* %47, align 4
  %50 = call i32 (i8*, ...) @printf(i8* getelementptr inbounds ([4 x i8], [4 x i8]* @.str.1, i64 0, i64 0), i32 %49)
  br label %51

51:                                               ; preds = %46
  %52 = load i32, i32* %4, align 4
  %53 = add nsw i32 %52, 1
  store i32 %53, i32* %4, align 4
  br label %41

54:                                               ; preds = %41
  %55 = load i32*, i32** %6, align 8
  %56 = load i32, i32* %55, align 4
  %57 = call i32 (i8*, ...) @printf(i8* getelementptr inbounds ([3 x i8], [3 x i8]* @.str, i64 0, i64 0), i32 %56)
  ret void
}

declare dso_local i32 @__isoc99_scanf(i8*, ...) #1

declare dso_local i32 @printf(i8*, ...) #1


!llvm.module.flags = !{!0}
!llvm.ident = !{!1}

!0 = !{i32 1, !"wchar_size", i32 4}
!1 = !{!"clang version 10.0.0-4ubuntu1 "}
